; Function Attrs: mustprogress nofree norecurse nosync nounwind memory(argmem: readwrite) uwtable
define hidden void @_ZN2cv11accW_16u32fEPKtPfPKhiid(ptr noundef readonly captures(none) %0, ptr noundef captures(none) %1, ptr noundef readonly %2, i32 noundef %3, i32 noundef %4, double noundef %5) local_unnamed_addr #0 {
  %7 = fptrunc double %5 to float
  %8 = fsub float 1.000000e+00, %7
  %.not.i.i = icmp eq ptr %2, null
  br i1 %.not.i.i, label %9, label %19

9:                                                ; preds = %6
  %10 = mul nsw i32 %4, %3
  %11 = icmp sgt i32 %10, 0
  br i1 %11, label %.lr.ph.preheader.i.i, label %_ZN2cv12cpu_baseline10accW_simd_EPKtPfPKhiid.exit

.lr.ph.preheader.i.i:                             ; preds = %9
  %wide.trip.count66.i.i = zext nneg i32 %10 to i64
  br label %.lr.ph.i.i

.lr.ph.i.i:                                       ; preds = %.lr.ph.i.i, %.lr.ph.preheader.i.i
  %indvars.iv63.i.i = phi i64 [ 0, %.lr.ph.preheader.i.i ], [ %indvars.iv.next64.i.i, %.lr.ph.i.i ]
  %12 = getelementptr inbounds nuw i16, ptr %0, i64 %indvars.iv63.i.i
  %13 = load i16, ptr %12, align 2, !tbaa !12
  %14 = uitofp i16 %13 to float
  %15 = getelementptr inbounds nuw float, ptr %1, i64 %indvars.iv63.i.i
  %16 = load float, ptr %15, align 4, !tbaa !6
  %17 = fmul float %8, %16
  %18 = tail call float @llvm.fmuladd.f32(float %14, float %7, float %17)
  store float %18, ptr %15, align 4, !tbaa !6
  %indvars.iv.next64.i.i = add nuw nsw i64 %indvars.iv63.i.i, 1
  %exitcond67.not.i.i = icmp eq i64 %indvars.iv.next64.i.i, %wide.trip.count66.i.i
  br i1 %exitcond67.not.i.i, label %_ZN2cv12cpu_baseline10accW_simd_EPKtPfPKhiid.exit, label %.lr.ph.i.i, !llvm.loop !79

19:                                               ; preds = %6
  %20 = icmp sgt i32 %3, 0
  br i1 %20, label %.lr.ph53.i.i, label %_ZN2cv12cpu_baseline10accW_simd_EPKtPfPKhiid.exit

.lr.ph53.i.i:                                     ; preds = %19
  %21 = icmp sgt i32 %4, 0
  %22 = sext i32 %4 to i64
  br i1 %21, label %.lr.ph53.split.us.preheader.i.i, label %_ZN2cv12cpu_baseline10accW_simd_EPKtPfPKhiid.exit

.lr.ph53.split.us.preheader.i.i:                  ; preds = %.lr.ph53.i.i
  %wide.trip.count61.i.i = zext nneg i32 %3 to i64
  %wide.trip.count.i.i = zext nneg i32 %4 to i64
  br label %.lr.ph53.split.us.i.i

.lr.ph53.split.us.i.i:                            ; preds = %..loopexit47_crit_edge.us.i.i, %.lr.ph53.split.us.preheader.i.i
  %indvars.iv58.i.i = phi i64 [ 0, %.lr.ph53.split.us.preheader.i.i ], [ %indvars.iv.next59.i.i, %..loopexit47_crit_edge.us.i.i ]
  %.04351.us.i.i = phi ptr [ %0, %.lr.ph53.split.us.preheader.i.i ], [ %32, %..loopexit47_crit_edge.us.i.i ]
  %.04450.us.i.i = phi ptr [ %1, %.lr.ph53.split.us.preheader.i.i ], [ %33, %..loopexit47_crit_edge.us.i.i ]
  %23 = getelementptr inbounds nuw i8, ptr %2, i64 %indvars.iv58.i.i
  %24 = load i8, ptr %23, align 1, !tbaa !3
  %.not46.us.i.i = icmp eq i8 %24, 0
  br i1 %.not46.us.i.i, label %..loopexit47_crit_edge.us.i.i, label %.preheader.us.i.i

.preheader.us.i.i:                                ; preds = %.lr.ph53.split.us.i.i, %.preheader.us.i.i
  %indvars.iv.i.i = phi i64 [ %indvars.iv.next.i.i, %.preheader.us.i.i ], [ 0, %.lr.ph53.split.us.i.i ]
  %25 = getelementptr inbounds nuw i16, ptr %.04351.us.i.i, i64 %indvars.iv.i.i
  %26 = load i16, ptr %25, align 2, !tbaa !12
  %27 = uitofp i16 %26 to float
  %28 = getelementptr inbounds nuw float, ptr %.04450.us.i.i, i64 %indvars.iv.i.i
  %29 = load float, ptr %28, align 4, !tbaa !6
  %30 = fmul float %8, %29
  %31 = tail call float @llvm.fmuladd.f32(float %27, float %7, float %30)
  store float %31, ptr %28, align 4, !tbaa !6
  %indvars.iv.next.i.i = add nuw nsw i64 %indvars.iv.i.i, 1
  %exitcond.not.i.i = icmp eq i64 %indvars.iv.next.i.i, %wide.trip.count.i.i
  br i1 %exitcond.not.i.i, label %..loopexit47_crit_edge.us.i.i, label %.preheader.us.i.i, !llvm.loop !80

..loopexit47_crit_edge.us.i.i:                    ; preds = %.preheader.us.i.i, %.lr.ph53.split.us.i.i
  %indvars.iv.next59.i.i = add nuw nsw i64 %indvars.iv58.i.i, 1
  %32 = getelementptr inbounds nuw i16, ptr %.04351.us.i.i, i64 %22
  %33 = getelementptr inbounds nuw float, ptr %.04450.us.i.i, i64 %22
  %exitcond62.not.i.i = icmp eq i64 %indvars.iv.next59.i.i, %wide.trip.count61.i.i
  br i1 %exitcond62.not.i.i, label %_ZN2cv12cpu_baseline10accW_simd_EPKtPfPKhiid.exit, label %.lr.ph53.split.us.i.i, !llvm.loop !81

_ZN2cv12cpu_baseline10accW_simd_EPKtPfPKhiid.exit: ; preds = %..loopexit47_crit_edge.us.i.i, %.lr.ph.i.i, %9, %19, %.lr.ph53.i.i
  ret void
}